target datalayout = "e-m:e-p270:32:32-p271:32:32-p272:64:64-i64:64-i128:128-f80:128-n8:16:32:64-S128"
target triple = "x86_64-pc-linux-gnu"

%class.dtNodePool = type <{ ptr, ptr, ptr, i32, i32, i32, [4 x i8] }>
%struct.dtNode = type { [3 x float], float, float, i32, i32 }

; Function Attrs: mustprogress nounwind uwtable
define linkonce_odr noundef i32 @_Z9dtHashRefj(i32 noundef %0) #2 comdat {
  %2 = alloca i32, align 4
  store i32 %0, ptr %2, align 4
  %3 = load i32, ptr %2, align 4
  %4 = shl i32 %3, 15
  %5 = xor i32 %4, -1
  %6 = load i32, ptr %2, align 4
  %7 = add i32 %6, %5
  store i32 %7, ptr %2, align 4
  %8 = load i32, ptr %2, align 4
  %9 = lshr i32 %8, 10
  %10 = load i32, ptr %2, align 4
  %11 = xor i32 %10, %9
  store i32 %11, ptr %2, align 4
  %12 = load i32, ptr %2, align 4
  %13 = shl i32 %12, 3
  %14 = load i32, ptr %2, align 4
  %15 = add i32 %14, %13
  store i32 %15, ptr %2, align 4
  %16 = load i32, ptr %2, align 4
  %17 = lshr i32 %16, 6
  %18 = load i32, ptr %2, align 4
  %19 = xor i32 %18, %17
  store i32 %19, ptr %2, align 4
  %20 = load i32, ptr %2, align 4
  %21 = shl i32 %20, 11
  %22 = xor i32 %21, -1
  %23 = load i32, ptr %2, align 4
  %24 = add i32 %23, %22
  store i32 %24, ptr %2, align 4
  %25 = load i32, ptr %2, align 4
  %26 = lshr i32 %25, 16
  %27 = load i32, ptr %2, align 4
  %28 = xor i32 %27, %26
  store i32 %28, ptr %2, align 4
  %29 = load i32, ptr %2, align 4
  ret i32 %29
}

; Function Attrs: mustprogress uwtable
define noundef i32 @_ZN10dtNodePool9findNodesEjPP6dtNodei(ptr noundef nonnull align 8 dereferenceable(36) %0, i32 noundef %1, ptr noundef %2, i32 noundef %3) #0 align 2 {
  %5 = alloca i32, align 4
  %6 = alloca ptr, align 8
  %7 = alloca i32, align 4
  %8 = alloca ptr, align 8
  %9 = alloca i32, align 4
  %10 = alloca i32, align 4
  %11 = alloca i32, align 4
  %12 = alloca i16, align 2
  store ptr %0, ptr %6, align 8
  store i32 %1, ptr %7, align 4
  store ptr %2, ptr %8, align 8
  store i32 %3, ptr %9, align 4
  %13 = load ptr, ptr %6, align 8
  store i32 0, ptr %10, align 4
  %14 = load i32, ptr %7, align 4
  %15 = call noundef i32 @_Z9dtHashRefj(i32 noundef %14)
  %16 = getelementptr inbounds %class.dtNodePool, ptr %13, i32 0, i32 4
  %17 = load i32, ptr %16, align 4
  %18 = sub nsw i32 %17, 1
  %19 = and i32 %15, %18
  store i32 %19, ptr %11, align 4
  %20 = getelementptr inbounds %class.dtNodePool, ptr %13, i32 0, i32 1
  %21 = load ptr, ptr %20, align 8
  %22 = load i32, ptr %11, align 4
  %23 = zext i32 %22 to i64
  %24 = getelementptr inbounds i16, ptr %21, i64 %23
  %25 = load i16, ptr %24, align 2
  store i16 %25, ptr %12, align 2
  br label %26

26:                                               ; preds = %57, %4
  %27 = load i16, ptr %12, align 2
  %28 = zext i16 %27 to i32
  %29 = icmp ne i32 %28, 65535
  br i1 %29, label %30, label %64

30:                                               ; preds = %26
  %31 = getelementptr inbounds %class.dtNodePool, ptr %13, i32 0, i32 0
  %32 = load ptr, ptr %31, align 8
  %33 = load i16, ptr %12, align 2
  %34 = zext i16 %33 to i64
  %35 = getelementptr inbounds %struct.dtNode, ptr %32, i64 %34
  %36 = getelementptr inbounds %struct.dtNode, ptr %35, i32 0, i32 4
  %37 = load i32, ptr %36, align 4
  %38 = load i32, ptr %7, align 4
  %39 = icmp eq i32 %37, %38
  br i1 %39, label %40, label %57

40:                                               ; preds = %30
  %41 = load i32, ptr %10, align 4
  %42 = load i32, ptr %9, align 4
  %43 = icmp sge i32 %41, %42
  br i1 %43, label %44, label %46

44:                                               ; preds = %40
  %45 = load i32, ptr %10, align 4
  store i32 %45, ptr %5, align 4
  br label %66

46:                                               ; preds = %40
  %47 = getelementptr inbounds %class.dtNodePool, ptr %13, i32 0, i32 0
  %48 = load ptr, ptr %47, align 8
  %49 = load i16, ptr %12, align 2
  %50 = zext i16 %49 to i64
  %51 = getelementptr inbounds %struct.dtNode, ptr %48, i64 %50
  %52 = load ptr, ptr %8, align 8
  %53 = load i32, ptr %10, align 4
  %54 = add nsw i32 %53, 1
  store i32 %54, ptr %10, align 4
  %55 = sext i32 %53 to i64
  %56 = getelementptr inbounds ptr, ptr %52, i64 %55
  store ptr %51, ptr %56, align 8
  br label %57

57:                                               ; preds = %46, %30
  %58 = getelementptr inbounds %class.dtNodePool, ptr %13, i32 0, i32 2
  %59 = load ptr, ptr %58, align 8
  %60 = load i16, ptr %12, align 2
  %61 = zext i16 %60 to i64
  %62 = getelementptr inbounds i16, ptr %59, i64 %61
  %63 = load i16, ptr %62, align 2
  store i16 %63, ptr %12, align 2
  br label %26, !llvm.loop !4

64:                                               ; preds = %26
  %65 = load i32, ptr %10, align 4
  store i32 %65, ptr %5, align 4
  br label %66

66:                                               ; preds = %64, %44
  %67 = load i32, ptr %5, align 4
  ret i32 %67
}