; Function Attrs: mustprogress nofree norecurse nosync nounwind memory(read, argmem: readwrite, inaccessiblemem: none) uwtable
define noundef i32 @_ZN10dtNodePool9findNodesEjPP6dtNodei(ptr noundef nonnull readonly align 8 captures(none) dereferenceable(36) %0, i32 noundef %1, ptr noundef writeonly captures(none) %2, i32 noundef %3) local_unnamed_addr #7 align 2 {
  %5 = shl i32 %1, 15
  %6 = xor i32 %5, -1
  %7 = add i32 %1, %6
  %8 = lshr i32 %7, 10
  %9 = xor i32 %8, %7
  %10 = mul i32 %9, 9
  %11 = lshr i32 %10, 6
  %12 = xor i32 %11, %10
  %13 = shl i32 %12, 11
  %14 = xor i32 %13, -1
  %15 = add i32 %12, %14
  %16 = lshr i32 %15, 16
  %17 = xor i32 %16, %15
  %18 = getelementptr inbounds nuw i8, ptr %0, i64 28
  %19 = load i32, ptr %18, align 4
  %20 = add nsw i32 %19, -1
  %21 = and i32 %20, %17
  %22 = getelementptr inbounds nuw i8, ptr %0, i64 8
  %23 = load ptr, ptr %22, align 8
  %24 = zext i32 %21 to i64
  %25 = getelementptr inbounds nuw i16, ptr %23, i64 %24
  %.017 = load i16, ptr %25, align 2
  %.not18 = icmp eq i16 %.017, -1
  br i1 %.not18, label %._crit_edge, label %.lr.ph

.lr.ph:                                           ; preds = %4
  %26 = getelementptr inbounds nuw i8, ptr %0, i64 16
  br label %27

27:                                               ; preds = %.lr.ph, %39
  %.020 = phi i16 [ %.017, %.lr.ph ], [ %.0, %39 ]
  %.01519 = phi i32 [ 0, %.lr.ph ], [ %.1, %39 ]
  %28 = load ptr, ptr %0, align 8
  %29 = zext i16 %.020 to i64
  %30 = getelementptr inbounds nuw %struct.dtNode, ptr %28, i64 %29
  %31 = getelementptr inbounds nuw i8, ptr %30, i64 24
  %32 = load i32, ptr %31, align 4
  %33 = icmp eq i32 %32, %1
  br i1 %33, label %34, label %39

34:                                               ; preds = %27
  %.not16 = icmp slt i32 %.01519, %3
  br i1 %.not16, label %35, label %._crit_edge

35:                                               ; preds = %34
  %36 = add nsw i32 %.01519, 1
  %37 = sext i32 %.01519 to i64
  %38 = getelementptr inbounds ptr, ptr %2, i64 %37
  store ptr %30, ptr %38, align 8
  br label %39

39:                                               ; preds = %35, %27
  %.1 = phi i32 [ %36, %35 ], [ %.01519, %27 ]
  %40 = load ptr, ptr %26, align 8
  %41 = getelementptr inbounds nuw i16, ptr %40, i64 %29
  %.0 = load i16, ptr %41, align 2
  %.not = icmp eq i16 %.0, -1
  br i1 %.not, label %._crit_edge, label %27, !llvm.loop !4

._crit_edge:                                      ; preds = %34, %39, %4
  %.015.lcssa = phi i32 [ 0, %4 ], [ %.1, %39 ], [ %.01519, %34 ]
  ret i32 %.015.lcssa
}